; ModuleID = '24/780.c'
source_filename = "24/780.c"
target datalayout = "e-m:e-p270:32:32-p271:32:32-p272:64:64-i64:64-f80:128-n8:16:32:64-S128"
target triple = "x86_64-pc-linux-gnu"

@.str = private unnamed_addr constant [3 x i8] c"%c\00", align 1
@.str.1 = private unnamed_addr constant [2 x i8] c"\0A\00", align 1

; Function Attrs: noinline nounwind uwtable
define dso_local void @main() #0 {
  %1 = alloca [10000 x i8], align 16
  %2 = alloca i8*, align 8
  %3 = alloca i8*, align 8
  %4 = alloca i8*, align 8
  %5 = alloca i32, align 4
  %6 = alloca i32, align 4
  %7 = alloca i32, align 4
  %8 = alloca i32, align 4
  %9 = alloca i32, align 4
  %10 = alloca i32, align 4
  %11 = alloca i32, align 4
  %12 = alloca i32, align 4
  %13 = alloca i32, align 4
  store i32 0, i32* %5, align 4
  store i32 0, i32* %6, align 4
  store i32 50, i32* %9, align 4
  store i32 0, i32* %10, align 4
  store i32 1, i32* %11, align 4
  store i32 0, i32* %12, align 4
  store i32 50, i32* %13, align 4
  %14 = getelementptr inbounds [10000 x i8], [10000 x i8]* %1, i64 0, i64 0
  %15 = call i32 (i8*, ...) bitcast (i32 (...)* @gets to i32 (i8*, ...)*)(i8* %14)
  %16 = getelementptr inbounds [10000 x i8], [10000 x i8]* %1, i64 0, i64 0
  %17 = call i64 @strlen(i8* %16) #3
  %18 = trunc i64 %17 to i32
  store i32 %18, i32* %7, align 4
  %19 = getelementptr inbounds [10000 x i8], [10000 x i8]* %1, i64 0, i64 0
  store i8* %19, i8** %2, align 8
  br label %20

20:                                               ; preds = %57, %0
  %21 = load i8*, i8** %2, align 8
  %22 = load i8, i8* %21, align 1
  %23 = sext i8 %22 to i32
  %24 = icmp eq i32 %23, 32
  br i1 %24, label %31, label %25

25:                                               ; preds = %20
  %26 = load i8*, i8** %2, align 8
  %27 = load i32, i32* %7, align 4
  %28 = sext i32 %27 to i64
  %29 = getelementptr inbounds [10000 x i8], [10000 x i8]* %1, i64 0, i64 %28
  %30 = icmp eq i8* %26, %29
  br i1 %30, label %31, label %32

31:                                               ; preds = %25, %20
  store i32 0, i32* %11, align 4
  br label %33

32:                                               ; preds = %25
  store i32 1, i32* %11, align 4
  br label %33

33:                                               ; preds = %32, %31
  %34 = load i32, i32* %11, align 4
  %35 = icmp eq i32 %34, 1
  br i1 %35, label %36, label %39

36:                                               ; preds = %33
  %37 = load i32, i32* %5, align 4
  %38 = add nsw i32 %37, 1
  store i32 %38, i32* %5, align 4
  br label %54

39:                                               ; preds = %33
  %40 = load i32, i32* %5, align 4
  %41 = load i32, i32* %10, align 4
  %42 = icmp sgt i32 %40, %41
  br i1 %42, label %43, label %46

43:                                               ; preds = %39
  %44 = load i32, i32* %5, align 4
  store i32 %44, i32* %10, align 4
  %45 = load i8*, i8** %2, align 8
  store i8* %45, i8** %3, align 8
  br label %46

46:                                               ; preds = %43, %39
  %47 = load i32, i32* %5, align 4
  %48 = load i32, i32* %9, align 4
  %49 = icmp slt i32 %47, %48
  br i1 %49, label %50, label %53

50:                                               ; preds = %46
  %51 = load i32, i32* %5, align 4
  store i32 %51, i32* %9, align 4
  %52 = load i8*, i8** %2, align 8
  store i8* %52, i8** %4, align 8
  br label %53

53:                                               ; preds = %50, %46
  store i32 0, i32* %5, align 4
  br label %54

54:                                               ; preds = %53, %36
  %55 = load i8*, i8** %2, align 8
  %56 = getelementptr inbounds i8, i8* %55, i32 1
  store i8* %56, i8** %2, align 8
  br label %57

57:                                               ; preds = %54
  %58 = load i8*, i8** %2, align 8
  %59 = load i32, i32* %7, align 4
  %60 = add nsw i32 %59, 1
  %61 = sext i32 %60 to i64
  %62 = getelementptr inbounds [10000 x i8], [10000 x i8]* %1, i64 0, i64 %61
  %63 = icmp ne i8* %58, %62
  br i1 %63, label %20, label %64

64:                                               ; preds = %57
  %65 = load i8*, i8** %3, align 8
  %66 = load i32, i32* %10, align 4
  %67 = sext i32 %66 to i64
  %68 = sub i64 0, %67
  %69 = getelementptr inbounds i8, i8* %65, i64 %68
  store i8* %69, i8** %2, align 8
  br label %70

70:                                               ; preds = %79, %64
  %71 = load i8*, i8** %2, align 8
  %72 = load i8*, i8** %3, align 8
  %73 = icmp ult i8* %71, %72
  br i1 %73, label %74, label %82

74:                                               ; preds = %70
  %75 = load i8*, i8** %2, align 8
  %76 = load i8, i8* %75, align 1
  %77 = sext i8 %76 to i32
  %78 = call i32 (i8*, ...) @printf(i8* getelementptr inbounds ([3 x i8], [3 x i8]* @.str, i64 0, i64 0), i32 %77)
  br label %79

79:                                               ; preds = %74
  %80 = load i8*, i8** %2, align 8
  %81 = getelementptr inbounds i8, i8* %80, i32 1
  store i8* %81, i8** %2, align 8
  br label %70

82:                                               ; preds = %70
  %83 = call i32 (i8*, ...) @printf(i8* getelementptr inbounds ([2 x i8], [2 x i8]* @.str.1, i64 0, i64 0))
  %84 = load i8*, i8** %4, align 8
  %85 = load i32, i32* %9, align 4
  %86 = sext i32 %85 to i64
  %87 = sub i64 0, %86
  %88 = getelementptr inbounds i8, i8* %84, i64 %87
  store i8* %88, i8** %2, align 8
  br label %89

89:                                               ; preds = %98, %82
  %90 = load i8*, i8** %2, align 8
  %91 = load i8*, i8** %4, align 8
  %92 = icmp ult i8* %90, %91
  br i1 %92, label %93, label %101

93:                                               ; preds = %89
  %94 = load i8*, i8** %2, align 8
  %95 = load i8, i8* %94, align 1
  %96 = sext i8 %95 to i32
  %97 = call i32 (i8*, ...) @printf(i8* getelementptr inbounds ([3 x i8], [3 x i8]* @.str, i64 0, i64 0), i32 %96)
  br label %98

98:                                               ; preds = %93
  %99 = load i8*, i8** %2, align 8
  %100 = getelementptr inbounds i8, i8* %99, i32 1
  store i8* %100, i8** %2, align 8
  br label %89

101:                                              ; preds = %89
  %102 = call i32 (i8*, ...) @printf(i8* getelementptr inbounds ([2 x i8], [2 x i8]* @.str.1, i64 0, i64 0))
  ret void
}

declare dso_local i32 @gets(...) #1

; Function Attrs: nounwind readonly
declare dso_local i64 @strlen(i8*) #2

declare dso_local i32 @printf(i8*, ...) #1


!llvm.module.flags = !{!0}
!llvm.ident = !{!1}

!0 = !{i32 1, !"wchar_size", i32 4}
!1 = !{!"clang version 10.0.0-4ubuntu1 "}
